; ModuleID = '35/718.c'
source_filename = "35/718.c"
target datalayout = "e-m:e-p270:32:32-p271:32:32-p272:64:64-i64:64-f80:128-n8:16:32:64-S128"
target triple = "x86_64-pc-linux-gnu"

@.str = private unnamed_addr constant [3 x i8] c"%d\00", align 1
@.str.1 = private unnamed_addr constant [2 x i8] c",\00", align 1
@.str.2 = private unnamed_addr constant [6 x i8] c"%d+%d\00", align 1
@.str.3 = private unnamed_addr constant [3 x i8] c"No\00", align 1

; Function Attrs: noinline nounwind uwtable
define dso_local i32 @main() #0 {
  %1 = alloca i32, align 4
  %2 = alloca [7 x [7 x i32]], align 16
  %3 = alloca i32, align 4
  %4 = alloca i32, align 4
  %5 = alloca i32, align 4
  %6 = alloca i32, align 4
  %7 = alloca i32, align 4
  %8 = alloca i32, align 4
  %9 = alloca i32, align 4
  %10 = alloca i32, align 4
  %11 = alloca i32, align 4
  store i32 0, i32* %1, align 4
  %12 = call i32 (i8*, ...) @__isoc99_scanf(i8* getelementptr inbounds ([3 x i8], [3 x i8]* @.str, i64 0, i64 0), i32* %11)
  %13 = call i32 (i8*, ...) @__isoc99_scanf(i8* getelementptr inbounds ([2 x i8], [2 x i8]* @.str.1, i64 0, i64 0))
  %14 = call i32 (i8*, ...) @__isoc99_scanf(i8* getelementptr inbounds ([3 x i8], [3 x i8]* @.str, i64 0, i64 0), i32* %10)
  store i32 0, i32* %3, align 4
  br label %15

15:                                               ; preds = %36, %0
  %16 = load i32, i32* %3, align 4
  %17 = load i32, i32* %11, align 4
  %18 = icmp slt i32 %16, %17
  br i1 %18, label %19, label %39

19:                                               ; preds = %15
  store i32 0, i32* %4, align 4
  br label %20

20:                                               ; preds = %32, %19
  %21 = load i32, i32* %4, align 4
  %22 = load i32, i32* %10, align 4
  %23 = icmp slt i32 %21, %22
  br i1 %23, label %24, label %35

24:                                               ; preds = %20
  %25 = load i32, i32* %3, align 4
  %26 = sext i32 %25 to i64
  %27 = getelementptr inbounds [7 x [7 x i32]], [7 x [7 x i32]]* %2, i64 0, i64 %26
  %28 = load i32, i32* %4, align 4
  %29 = sext i32 %28 to i64
  %30 = getelementptr inbounds [7 x i32], [7 x i32]* %27, i64 0, i64 %29
  %31 = call i32 (i8*, ...) @__isoc99_scanf(i8* getelementptr inbounds ([3 x i8], [3 x i8]* @.str, i64 0, i64 0), i32* %30)
  br label %32

32:                                               ; preds = %24
  %33 = load i32, i32* %4, align 4
  %34 = add nsw i32 %33, 1
  store i32 %34, i32* %4, align 4
  br label %20

35:                                               ; preds = %20
  br label %36

36:                                               ; preds = %35
  %37 = load i32, i32* %3, align 4
  %38 = add nsw i32 %37, 1
  store i32 %38, i32* %3, align 4
  br label %15

39:                                               ; preds = %15
  store i32 0, i32* %3, align 4
  br label %40

40:                                               ; preds = %105, %39
  %41 = load i32, i32* %3, align 4
  %42 = load i32, i32* %11, align 4
  %43 = icmp slt i32 %41, %42
  br i1 %43, label %44, label %108

44:                                               ; preds = %40
  %45 = load i32, i32* %3, align 4
  %46 = sext i32 %45 to i64
  %47 = getelementptr inbounds [7 x [7 x i32]], [7 x [7 x i32]]* %2, i64 0, i64 %46
  %48 = getelementptr inbounds [7 x i32], [7 x i32]* %47, i64 0, i64 0
  %49 = load i32, i32* %48, align 4
  store i32 %49, i32* %5, align 4
  store i32 0, i32* %4, align 4
  br label %50

50:                                               ; preds = %74, %44
  %51 = load i32, i32* %4, align 4
  %52 = load i32, i32* %10, align 4
  %53 = icmp slt i32 %51, %52
  br i1 %53, label %54, label %77

54:                                               ; preds = %50
  %55 = load i32, i32* %3, align 4
  %56 = sext i32 %55 to i64
  %57 = getelementptr inbounds [7 x [7 x i32]], [7 x [7 x i32]]* %2, i64 0, i64 %56
  %58 = load i32, i32* %4, align 4
  %59 = sext i32 %58 to i64
  %60 = getelementptr inbounds [7 x i32], [7 x i32]* %57, i64 0, i64 %59
  %61 = load i32, i32* %60, align 4
  %62 = load i32, i32* %5, align 4
  %63 = icmp sge i32 %61, %62
  br i1 %63, label %64, label %73

64:                                               ; preds = %54
  %65 = load i32, i32* %3, align 4
  %66 = sext i32 %65 to i64
  %67 = getelementptr inbounds [7 x [7 x i32]], [7 x [7 x i32]]* %2, i64 0, i64 %66
  %68 = load i32, i32* %4, align 4
  %69 = sext i32 %68 to i64
  %70 = getelementptr inbounds [7 x i32], [7 x i32]* %67, i64 0, i64 %69
  %71 = load i32, i32* %70, align 4
  store i32 %71, i32* %5, align 4
  %72 = load i32, i32* %4, align 4
  store i32 %72, i32* %7, align 4
  store i32 1, i32* %8, align 4
  br label %73

73:                                               ; preds = %64, %54
  br label %74

74:                                               ; preds = %73
  %75 = load i32, i32* %4, align 4
  %76 = add nsw i32 %75, 1
  store i32 %76, i32* %4, align 4
  br label %50

77:                                               ; preds = %50
  store i32 0, i32* %9, align 4
  br label %78

78:                                               ; preds = %94, %77
  %79 = load i32, i32* %9, align 4
  %80 = load i32, i32* %11, align 4
  %81 = icmp slt i32 %79, %80
  br i1 %81, label %82, label %97

82:                                               ; preds = %78
  %83 = load i32, i32* %5, align 4
  %84 = load i32, i32* %9, align 4
  %85 = sext i32 %84 to i64
  %86 = getelementptr inbounds [7 x [7 x i32]], [7 x [7 x i32]]* %2, i64 0, i64 %85
  %87 = load i32, i32* %7, align 4
  %88 = sext i32 %87 to i64
  %89 = getelementptr inbounds [7 x i32], [7 x i32]* %86, i64 0, i64 %88
  %90 = load i32, i32* %89, align 4
  %91 = icmp sgt i32 %83, %90
  br i1 %91, label %92, label %93

92:                                               ; preds = %82
  store i32 0, i32* %8, align 4
  br label %94

93:                                               ; preds = %82
  br label %94

94:                                               ; preds = %93, %92
  %95 = load i32, i32* %9, align 4
  %96 = add nsw i32 %95, 1
  store i32 %96, i32* %9, align 4
  br label %78

97:                                               ; preds = %78
  %98 = load i32, i32* %8, align 4
  %99 = icmp eq i32 %98, 1
  br i1 %99, label %100, label %104

100:                                              ; preds = %97
  %101 = load i32, i32* %3, align 4
  %102 = load i32, i32* %7, align 4
  %103 = call i32 (i8*, ...) @printf(i8* getelementptr inbounds ([6 x i8], [6 x i8]* @.str.2, i64 0, i64 0), i32 %101, i32 %102)
  br label %108

104:                                              ; preds = %97
  br label %105

105:                                              ; preds = %104
  %106 = load i32, i32* %3, align 4
  %107 = add nsw i32 %106, 1
  store i32 %107, i32* %3, align 4
  br label %40

108:                                              ; preds = %100, %40
  %109 = load i32, i32* %8, align 4
  %110 = icmp eq i32 %109, 0
  br i1 %110, label %111, label %113

111:                                              ; preds = %108
  %112 = call i32 (i8*, ...) @printf(i8* getelementptr inbounds ([3 x i8], [3 x i8]* @.str.3, i64 0, i64 0))
  br label %113

113:                                              ; preds = %111, %108
  ret i32 0
}

declare dso_local i32 @__isoc99_scanf(i8*, ...) #1

declare dso_local i32 @printf(i8*, ...) #1


!llvm.module.flags = !{!0}
!llvm.ident = !{!1}

!0 = !{i32 1, !"wchar_size", i32 4}
!1 = !{!"clang version 10.0.0-4ubuntu1 "}
